target datalayout = "e-m:e-p270:32:32-p271:32:32-p272:64:64-i64:64-i128:128-f80:128-n8:16:32:64-S128"
target triple = "x86_64-pc-linux-gnu"

; Function Attrs: nounwind uwtable
define internal void @gbr24ptopacked32(ptr noundef %0, ptr noundef %1, ptr noundef %2, i32 noundef %3, i32 noundef %4, i32 noundef %5, i32 noundef %6) #0 {
  %8 = alloca ptr, align 8
  %9 = alloca ptr, align 8
  %10 = alloca ptr, align 8
  %11 = alloca i32, align 4
  %12 = alloca i32, align 4
  %13 = alloca i32, align 4
  %14 = alloca i32, align 4
  %15 = alloca i32, align 4
  %16 = alloca i32, align 4
  %17 = alloca i32, align 4
  %18 = alloca ptr, align 8
  store ptr %0, ptr %8, align 8, !tbaa !52
  store ptr %1, ptr %9, align 8, !tbaa !54
  store ptr %2, ptr %10, align 8, !tbaa !4
  store i32 %3, ptr %11, align 4, !tbaa !9
  store i32 %4, ptr %12, align 4, !tbaa !9
  store i32 %5, ptr %13, align 4, !tbaa !9
  store i32 %6, ptr %14, align 4, !tbaa !9
  call void @llvm.lifetime.start.p0(i64 4, ptr %15) #11
  call void @llvm.lifetime.start.p0(i64 4, ptr %16) #11
  call void @llvm.lifetime.start.p0(i64 4, ptr %17) #11
  store i32 0, ptr %16, align 4, !tbaa !9
  br label %19

19:                                               ; preds = %131, %7
  %20 = load i32, ptr %16, align 4, !tbaa !9
  %21 = load i32, ptr %12, align 4, !tbaa !9
  %22 = icmp slt i32 %20, %21
  br i1 %22, label %23, label %134

23:                                               ; preds = %19
  call void @llvm.lifetime.start.p0(i64 8, ptr %18) #11
  %24 = load ptr, ptr %10, align 8, !tbaa !4
  %25 = load i32, ptr %11, align 4, !tbaa !9
  %26 = load i32, ptr %16, align 4, !tbaa !9
  %27 = mul nsw i32 %25, %26
  %28 = sext i32 %27 to i64
  %29 = getelementptr inbounds i8, ptr %24, i64 %28
  store ptr %29, ptr %18, align 8, !tbaa !4
  %30 = load i32, ptr %13, align 4, !tbaa !9
  %31 = icmp ne i32 %30, 0
  br i1 %31, label %32, label %71

32:                                               ; preds = %23
  store i32 0, ptr %15, align 4, !tbaa !9
  br label %33

33:                                               ; preds = %67, %32
  %34 = load i32, ptr %15, align 4, !tbaa !9
  %35 = load i32, ptr %14, align 4, !tbaa !9
  %36 = icmp slt i32 %34, %35
  br i1 %36, label %37, label %70

37:                                               ; preds = %33
  %38 = load ptr, ptr %18, align 8, !tbaa !4
  %39 = getelementptr inbounds nuw i8, ptr %38, i32 1
  store ptr %39, ptr %18, align 8, !tbaa !4
  store i8 -1, ptr %38, align 1, !tbaa !67
  %40 = load ptr, ptr %8, align 8, !tbaa !52
  %41 = getelementptr inbounds ptr, ptr %40, i64 0
  %42 = load ptr, ptr %41, align 8, !tbaa !4
  %43 = load i32, ptr %15, align 4, !tbaa !9
  %44 = sext i32 %43 to i64
  %45 = getelementptr inbounds i8, ptr %42, i64 %44
  %46 = load i8, ptr %45, align 1, !tbaa !67
  %47 = load ptr, ptr %18, align 8, !tbaa !4
  %48 = getelementptr inbounds nuw i8, ptr %47, i32 1
  store ptr %48, ptr %18, align 8, !tbaa !4
  store i8 %46, ptr %47, align 1, !tbaa !67
  %49 = load ptr, ptr %8, align 8, !tbaa !52
  %50 = getelementptr inbounds ptr, ptr %49, i64 1
  %51 = load ptr, ptr %50, align 8, !tbaa !4
  %52 = load i32, ptr %15, align 4, !tbaa !9
  %53 = sext i32 %52 to i64
  %54 = getelementptr inbounds i8, ptr %51, i64 %53
  %55 = load i8, ptr %54, align 1, !tbaa !67
  %56 = load ptr, ptr %18, align 8, !tbaa !4
  %57 = getelementptr inbounds nuw i8, ptr %56, i32 1
  store ptr %57, ptr %18, align 8, !tbaa !4
  store i8 %55, ptr %56, align 1, !tbaa !67
  %58 = load ptr, ptr %8, align 8, !tbaa !52
  %59 = getelementptr inbounds ptr, ptr %58, i64 2
  %60 = load ptr, ptr %59, align 8, !tbaa !4
  %61 = load i32, ptr %15, align 4, !tbaa !9
  %62 = sext i32 %61 to i64
  %63 = getelementptr inbounds i8, ptr %60, i64 %62
  %64 = load i8, ptr %63, align 1, !tbaa !67
  %65 = load ptr, ptr %18, align 8, !tbaa !4
  %66 = getelementptr inbounds nuw i8, ptr %65, i32 1
  store ptr %66, ptr %18, align 8, !tbaa !4
  store i8 %64, ptr %65, align 1, !tbaa !67
  br label %67

67:                                               ; preds = %37
  %68 = load i32, ptr %15, align 4, !tbaa !9
  %69 = add nsw i32 %68, 1
  store i32 %69, ptr %15, align 4, !tbaa !9
  br label %33, !llvm.loop !187

70:                                               ; preds = %33
  br label %110

71:                                               ; preds = %23
  store i32 0, ptr %15, align 4, !tbaa !9
  br label %72

72:                                               ; preds = %106, %71
  %73 = load i32, ptr %15, align 4, !tbaa !9
  %74 = load i32, ptr %14, align 4, !tbaa !9
  %75 = icmp slt i32 %73, %74
  br i1 %75, label %76, label %109

76:                                               ; preds = %72
  %77 = load ptr, ptr %8, align 8, !tbaa !52
  %78 = getelementptr inbounds ptr, ptr %77, i64 0
  %79 = load ptr, ptr %78, align 8, !tbaa !4
  %80 = load i32, ptr %15, align 4, !tbaa !9
  %81 = sext i32 %80 to i64
  %82 = getelementptr inbounds i8, ptr %79, i64 %81
  %83 = load i8, ptr %82, align 1, !tbaa !67
  %84 = load ptr, ptr %18, align 8, !tbaa !4
  %85 = getelementptr inbounds nuw i8, ptr %84, i32 1
  store ptr %85, ptr %18, align 8, !tbaa !4
  store i8 %83, ptr %84, align 1, !tbaa !67
  %86 = load ptr, ptr %8, align 8, !tbaa !52
  %87 = getelementptr inbounds ptr, ptr %86, i64 1
  %88 = load ptr, ptr %87, align 8, !tbaa !4
  %89 = load i32, ptr %15, align 4, !tbaa !9
  %90 = sext i32 %89 to i64
  %91 = getelementptr inbounds i8, ptr %88, i64 %90
  %92 = load i8, ptr %91, align 1, !tbaa !67
  %93 = load ptr, ptr %18, align 8, !tbaa !4
  %94 = getelementptr inbounds nuw i8, ptr %93, i32 1
  store ptr %94, ptr %18, align 8, !tbaa !4
  store i8 %92, ptr %93, align 1, !tbaa !67
  %95 = load ptr, ptr %8, align 8, !tbaa !52
  %96 = getelementptr inbounds ptr, ptr %95, i64 2
  %97 = load ptr, ptr %96, align 8, !tbaa !4
  %98 = load i32, ptr %15, align 4, !tbaa !9
  %99 = sext i32 %98 to i64
  %100 = getelementptr inbounds i8, ptr %97, i64 %99
  %101 = load i8, ptr %100, align 1, !tbaa !67
  %102 = load ptr, ptr %18, align 8, !tbaa !4
  %103 = getelementptr inbounds nuw i8, ptr %102, i32 1
  store ptr %103, ptr %18, align 8, !tbaa !4
  store i8 %101, ptr %102, align 1, !tbaa !67
  %104 = load ptr, ptr %18, align 8, !tbaa !4
  %105 = getelementptr inbounds nuw i8, ptr %104, i32 1
  store ptr %105, ptr %18, align 8, !tbaa !4
  store i8 -1, ptr %104, align 1, !tbaa !67
  br label %106

106:                                              ; preds = %76
  %107 = load i32, ptr %15, align 4, !tbaa !9
  %108 = add nsw i32 %107, 1
  store i32 %108, ptr %15, align 4, !tbaa !9
  br label %72, !llvm.loop !188

109:                                              ; preds = %72
  br label %110

110:                                              ; preds = %109, %70
  store i32 0, ptr %17, align 4, !tbaa !9
  br label %111

111:                                              ; preds = %127, %110
  %112 = load i32, ptr %17, align 4, !tbaa !9
  %113 = icmp slt i32 %112, 3
  br i1 %113, label %114, label %130

114:                                              ; preds = %111
  %115 = load ptr, ptr %9, align 8, !tbaa !54
  %116 = load i32, ptr %17, align 4, !tbaa !9
  %117 = sext i32 %116 to i64
  %118 = getelementptr inbounds i32, ptr %115, i64 %117
  %119 = load i32, ptr %118, align 4, !tbaa !9
  %120 = load ptr, ptr %8, align 8, !tbaa !52
  %121 = load i32, ptr %17, align 4, !tbaa !9
  %122 = sext i32 %121 to i64
  %123 = getelementptr inbounds ptr, ptr %120, i64 %122
  %124 = load ptr, ptr %123, align 8, !tbaa !4
  %125 = sext i32 %119 to i64
  %126 = getelementptr inbounds i8, ptr %124, i64 %125
  store ptr %126, ptr %123, align 8, !tbaa !4
  br label %127

127:                                              ; preds = %114
  %128 = load i32, ptr %17, align 4, !tbaa !9
  %129 = add nsw i32 %128, 1
  store i32 %129, ptr %17, align 4, !tbaa !9
  br label %111, !llvm.loop !189

130:                                              ; preds = %111
  call void @llvm.lifetime.end.p0(i64 8, ptr %18) #11
  br label %131

131:                                              ; preds = %130
  %132 = load i32, ptr %16, align 4, !tbaa !9
  %133 = add nsw i32 %132, 1
  store i32 %133, ptr %16, align 4, !tbaa !9
  br label %19, !llvm.loop !190

134:                                              ; preds = %19
  call void @llvm.lifetime.end.p0(i64 4, ptr %17) #11
  call void @llvm.lifetime.end.p0(i64 4, ptr %16) #11
  call void @llvm.lifetime.end.p0(i64 4, ptr %15) #11
  ret void
}