; Function Attrs: nofree norecurse nosync nounwind memory(read, argmem: readwrite, inaccessiblemem: none) uwtable
define internal fastcc void @gbr24ptopacked32(ptr noundef nonnull captures(none) %0, ptr noundef nonnull readonly captures(none) %1, ptr noundef writeonly captures(none) %2, i32 noundef %3, i32 noundef %4, i32 noundef range(i32 0, 2) %5, i32 noundef %6) unnamed_addr #9 {
  %8 = icmp sgt i32 %4, 0
  br i1 %8, label %.lr.ph51, label %._crit_edge

.lr.ph51:                                         ; preds = %7
  %.not = icmp eq i32 %5, 0
  %9 = getelementptr inbounds nuw i8, ptr %0, i64 8
  %10 = getelementptr inbounds nuw i8, ptr %0, i64 16
  %11 = icmp sgt i32 %6, 0
  br i1 %.not, label %.lr.ph51.split.us, label %.lr.ph51.split

.lr.ph51.split.us:                                ; preds = %.lr.ph51
  br i1 %11, label %.preheader.us.us.preheader, label %.preheader.us

.preheader.us.us.preheader:                       ; preds = %.lr.ph51.split.us
  %12 = sext i32 %3 to i64
  %wide.trip.count89 = zext nneg i32 %4 to i64
  %wide.trip.count80 = zext nneg i32 %6 to i64
  br label %.preheader.us.us

.preheader.us.us:                                 ; preds = %.preheader.us.us.preheader, %15
  %indvars.iv86 = phi i64 [ 0, %.preheader.us.us.preheader ], [ %indvars.iv.next87, %15 ]
  %13 = mul nsw i64 %indvars.iv86, %12
  %14 = getelementptr inbounds i8, ptr %2, i64 %13
  br label %22

15:                                               ; preds = %..loopexit_crit_edge.us.us
  %indvars.iv.next87 = add nuw nsw i64 %indvars.iv86, 1
  %exitcond90.not = icmp eq i64 %indvars.iv.next87, %wide.trip.count89
  br i1 %exitcond90.not, label %._crit_edge, label %.preheader.us.us, !llvm.loop !186

..loopexit_crit_edge.us.us:                       ; preds = %22, %..loopexit_crit_edge.us.us
  %indvars.iv82 = phi i64 [ %indvars.iv.next83, %..loopexit_crit_edge.us.us ], [ 0, %22 ]
  %16 = getelementptr inbounds nuw i32, ptr %1, i64 %indvars.iv82
  %17 = load i32, ptr %16, align 4, !tbaa !48
  %18 = getelementptr inbounds nuw ptr, ptr %0, i64 %indvars.iv82
  %19 = load ptr, ptr %18, align 8, !tbaa !49
  %20 = sext i32 %17 to i64
  %21 = getelementptr inbounds i8, ptr %19, i64 %20
  store ptr %21, ptr %18, align 8, !tbaa !49
  %indvars.iv.next83 = add nuw nsw i64 %indvars.iv82, 1
  %exitcond85.not = icmp eq i64 %indvars.iv.next83, 3
  br i1 %exitcond85.not, label %15, label %..loopexit_crit_edge.us.us, !llvm.loop !187

22:                                               ; preds = %.preheader.us.us, %22
  %indvars.iv77 = phi i64 [ 0, %.preheader.us.us ], [ %indvars.iv.next78, %22 ]
  %.147.us.us = phi ptr [ %14, %.preheader.us.us ], [ %35, %22 ]
  %23 = load ptr, ptr %0, align 8, !tbaa !49
  %24 = getelementptr inbounds nuw i8, ptr %23, i64 %indvars.iv77
  %25 = load i8, ptr %24, align 1, !tbaa !61
  %26 = getelementptr inbounds nuw i8, ptr %.147.us.us, i64 1
  store i8 %25, ptr %.147.us.us, align 1, !tbaa !61
  %27 = load ptr, ptr %9, align 8, !tbaa !49
  %28 = getelementptr inbounds nuw i8, ptr %27, i64 %indvars.iv77
  %29 = load i8, ptr %28, align 1, !tbaa !61
  %30 = getelementptr inbounds nuw i8, ptr %.147.us.us, i64 2
  store i8 %29, ptr %26, align 1, !tbaa !61
  %31 = load ptr, ptr %10, align 8, !tbaa !49
  %32 = getelementptr inbounds nuw i8, ptr %31, i64 %indvars.iv77
  %33 = load i8, ptr %32, align 1, !tbaa !61
  %34 = getelementptr inbounds nuw i8, ptr %.147.us.us, i64 3
  store i8 %33, ptr %30, align 1, !tbaa !61
  %35 = getelementptr inbounds nuw i8, ptr %.147.us.us, i64 4
  store i8 -1, ptr %34, align 1, !tbaa !61
  %indvars.iv.next78 = add nuw nsw i64 %indvars.iv77, 1
  %exitcond81.not = icmp eq i64 %indvars.iv.next78, %wide.trip.count80
  br i1 %exitcond81.not, label %..loopexit_crit_edge.us.us, label %22, !llvm.loop !188

.preheader.us:                                    ; preds = %.lr.ph51.split.us, %36
  %.03950.us = phi i32 [ %37, %36 ], [ 0, %.lr.ph51.split.us ]
  br label %38

36:                                               ; preds = %38
  %37 = add nuw nsw i32 %.03950.us, 1
  %exitcond76.not = icmp eq i32 %37, %4
  br i1 %exitcond76.not, label %._crit_edge, label %.preheader.us, !llvm.loop !186

38:                                               ; preds = %38, %.preheader.us
  %indvars.iv72 = phi i64 [ %indvars.iv.next73, %38 ], [ 0, %.preheader.us ]
  %39 = getelementptr inbounds nuw i32, ptr %1, i64 %indvars.iv72
  %40 = load i32, ptr %39, align 4, !tbaa !48
  %41 = getelementptr inbounds nuw ptr, ptr %0, i64 %indvars.iv72
  %42 = load ptr, ptr %41, align 8, !tbaa !49
  %43 = sext i32 %40 to i64
  %44 = getelementptr inbounds i8, ptr %42, i64 %43
  store ptr %44, ptr %41, align 8, !tbaa !49
  %indvars.iv.next73 = add nuw nsw i64 %indvars.iv72, 1
  %exitcond75.not = icmp eq i64 %indvars.iv.next73, 3
  br i1 %exitcond75.not, label %36, label %38, !llvm.loop !187

.lr.ph51.split:                                   ; preds = %.lr.ph51
  br i1 %11, label %.preheader42.us.preheader, label %.preheader42

.preheader42.us.preheader:                        ; preds = %.lr.ph51.split
  %45 = sext i32 %3 to i64
  %wide.trip.count70 = zext nneg i32 %4 to i64
  %wide.trip.count = zext nneg i32 %6 to i64
  br label %.preheader42.us

.preheader42.us:                                  ; preds = %.preheader42.us.preheader, %62
  %indvars.iv67 = phi i64 [ 0, %.preheader42.us.preheader ], [ %indvars.iv.next68, %62 ]
  %46 = mul nsw i64 %indvars.iv67, %45
  %47 = getelementptr inbounds i8, ptr %2, i64 %46
  br label %48

48:                                               ; preds = %.preheader42.us, %48
  %indvars.iv59 = phi i64 [ 0, %.preheader42.us ], [ %indvars.iv.next60, %48 ]
  %.045.us = phi ptr [ %47, %.preheader42.us ], [ %61, %48 ]
  %49 = getelementptr inbounds nuw i8, ptr %.045.us, i64 1
  store i8 -1, ptr %.045.us, align 1, !tbaa !61
  %50 = load ptr, ptr %0, align 8, !tbaa !49
  %51 = getelementptr inbounds nuw i8, ptr %50, i64 %indvars.iv59
  %52 = load i8, ptr %51, align 1, !tbaa !61
  %53 = getelementptr inbounds nuw i8, ptr %.045.us, i64 2
  store i8 %52, ptr %49, align 1, !tbaa !61
  %54 = load ptr, ptr %9, align 8, !tbaa !49
  %55 = getelementptr inbounds nuw i8, ptr %54, i64 %indvars.iv59
  %56 = load i8, ptr %55, align 1, !tbaa !61
  %57 = getelementptr inbounds nuw i8, ptr %.045.us, i64 3
  store i8 %56, ptr %53, align 1, !tbaa !61
  %58 = load ptr, ptr %10, align 8, !tbaa !49
  %59 = getelementptr inbounds nuw i8, ptr %58, i64 %indvars.iv59
  %60 = load i8, ptr %59, align 1, !tbaa !61
  %61 = getelementptr inbounds nuw i8, ptr %.045.us, i64 4
  store i8 %60, ptr %57, align 1, !tbaa !61
  %indvars.iv.next60 = add nuw nsw i64 %indvars.iv59, 1
  %exitcond62.not = icmp eq i64 %indvars.iv.next60, %wide.trip.count
  br i1 %exitcond62.not, label %..loopexit43_crit_edge.us, label %48, !llvm.loop !189

62:                                               ; preds = %..loopexit43_crit_edge.us
  %indvars.iv.next68 = add nuw nsw i64 %indvars.iv67, 1
  %exitcond71.not = icmp eq i64 %indvars.iv.next68, %wide.trip.count70
  br i1 %exitcond71.not, label %._crit_edge, label %.preheader42.us, !llvm.loop !186

..loopexit43_crit_edge.us:                        ; preds = %48, %..loopexit43_crit_edge.us
  %indvars.iv63 = phi i64 [ %indvars.iv.next64, %..loopexit43_crit_edge.us ], [ 0, %48 ]
  %63 = getelementptr inbounds nuw i32, ptr %1, i64 %indvars.iv63
  %64 = load i32, ptr %63, align 4, !tbaa !48
  %65 = getelementptr inbounds nuw ptr, ptr %0, i64 %indvars.iv63
  %66 = load ptr, ptr %65, align 8, !tbaa !49
  %67 = sext i32 %64 to i64
  %68 = getelementptr inbounds i8, ptr %66, i64 %67
  store ptr %68, ptr %65, align 8, !tbaa !49
  %indvars.iv.next64 = add nuw nsw i64 %indvars.iv63, 1
  %exitcond66.not = icmp eq i64 %indvars.iv.next64, 3
  br i1 %exitcond66.not, label %62, label %..loopexit43_crit_edge.us, !llvm.loop !187

.preheader42:                                     ; preds = %.lr.ph51.split, %76
  %.03950 = phi i32 [ %77, %76 ], [ 0, %.lr.ph51.split ]
  br label %69

69:                                               ; preds = %.preheader42, %69
  %indvars.iv = phi i64 [ 0, %.preheader42 ], [ %indvars.iv.next, %69 ]
  %70 = getelementptr inbounds nuw i32, ptr %1, i64 %indvars.iv
  %71 = load i32, ptr %70, align 4, !tbaa !48
  %72 = getelementptr inbounds nuw ptr, ptr %0, i64 %indvars.iv
  %73 = load ptr, ptr %72, align 8, !tbaa !49
  %74 = sext i32 %71 to i64
  %75 = getelementptr inbounds i8, ptr %73, i64 %74
  store ptr %75, ptr %72, align 8, !tbaa !49
  %indvars.iv.next = add nuw nsw i64 %indvars.iv, 1
  %exitcond.not = icmp eq i64 %indvars.iv.next, 3
  br i1 %exitcond.not, label %76, label %69, !llvm.loop !187

76:                                               ; preds = %69
  %77 = add nuw nsw i32 %.03950, 1
  %exitcond58.not = icmp eq i32 %77, %4
  br i1 %exitcond58.not, label %._crit_edge, label %.preheader42, !llvm.loop !186

._crit_edge:                                      ; preds = %76, %62, %36, %15, %7
  ret void
}